target datalayout = "e-m:e-p270:32:32-p271:32:32-p272:64:64-i64:64-i128:128-f80:128-n8:16:32:64-S128"
target triple = "x86_64-pc-linux-gnu"

%struct.lua_State = type { i8, i8, i8, i8, i8, i8, i8, ptr, ptr, ptr, ptr, ptr, ptr, ptr, ptr, i32, i32, i16, i16, i32, ptr, ptr, ptr, ptr, ptr }
%struct.lua_TValue = type { %union.Value, [1 x i32], i32 }
%union.Value = type { ptr }

; Function Attrs: mustprogress uwtable
define internal noundef i32 @_ZL15luaB_xpcallcontP9lua_Statei(ptr noundef %0, i32 noundef %1) #0 {
  %3 = alloca i32, align 4
  %4 = alloca ptr, align 8
  %5 = alloca i32, align 4
  %6 = alloca ptr, align 8
  %7 = alloca ptr, align 8
  store ptr %0, ptr %4, align 8
  store i32 %1, ptr %5, align 4
  %8 = load i32, ptr %5, align 4
  %9 = icmp eq i32 %8, 0
  br i1 %9, label %10, label %16

10:                                               ; preds = %2
  %11 = load ptr, ptr %4, align 8
  call void @_Z17lua_rawcheckstackP9lua_Statei(ptr noundef %11, i32 noundef 1)
  %12 = load ptr, ptr %4, align 8
  call void @_Z15lua_pushbooleanP9lua_Statei(ptr noundef %12, i32 noundef 1)
  %13 = load ptr, ptr %4, align 8
  call void @_Z11lua_replaceP9lua_Statei(ptr noundef %13, i32 noundef 1)
  %14 = load ptr, ptr %4, align 8
  %15 = call noundef i32 @_Z10lua_gettopP9lua_State(ptr noundef %14)
  store i32 %15, ptr %3, align 4
  br label %46

16:                                               ; preds = %2
  %17 = load ptr, ptr %4, align 8
  call void @_Z17lua_rawcheckstackP9lua_Statei(ptr noundef %17, i32 noundef 3)
  %18 = load ptr, ptr %4, align 8
  call void @_Z15lua_pushbooleanP9lua_Statei(ptr noundef %18, i32 noundef 0)
  %19 = load ptr, ptr %4, align 8
  call void @_Z13lua_pushvalueP9lua_Statei(ptr noundef %19, i32 noundef 1)
  %20 = load ptr, ptr %4, align 8
  call void @_Z13lua_pushvalueP9lua_Statei(ptr noundef %20, i32 noundef -3)
  %21 = load ptr, ptr %4, align 8
  %22 = getelementptr inbounds %struct.lua_State, ptr %21, i32 0, i32 7
  %23 = load ptr, ptr %22, align 8
  %24 = getelementptr inbounds %struct.lua_TValue, ptr %23, i64 -3
  store ptr %24, ptr %6, align 8
  %25 = load ptr, ptr %4, align 8
  %26 = getelementptr inbounds %struct.lua_State, ptr %25, i32 0, i32 7
  %27 = load ptr, ptr %26, align 8
  %28 = getelementptr inbounds %struct.lua_TValue, ptr %27, i64 -2
  store ptr %28, ptr %7, align 8
  %29 = load ptr, ptr %4, align 8
  %30 = load ptr, ptr %7, align 8
  %31 = load ptr, ptr %7, align 8
  %32 = load ptr, ptr %4, align 8
  %33 = getelementptr inbounds %struct.lua_State, ptr %32, i32 0, i32 12
  %34 = load ptr, ptr %33, align 8
  %35 = ptrtoint ptr %31 to i64
  %36 = ptrtoint ptr %34 to i64
  %37 = sub i64 %35, %36
  %38 = load ptr, ptr %6, align 8
  %39 = load ptr, ptr %4, align 8
  %40 = getelementptr inbounds %struct.lua_State, ptr %39, i32 0, i32 12
  %41 = load ptr, ptr %40, align 8
  %42 = ptrtoint ptr %38 to i64
  %43 = ptrtoint ptr %41 to i64
  %44 = sub i64 %42, %43
  %45 = call noundef i32 @_Z10luaD_pcallP9lua_StatePFvS0_PvES1_ll(ptr noundef %29, ptr noundef @_ZL14luaB_xpcallerrP9lua_StatePv, ptr noundef %30, i64 noundef %37, i64 noundef %44)
  store i32 2, ptr %3, align 4
  br label %46

46:                                               ; preds = %16, %10
  %47 = load i32, ptr %3, align 4
  ret i32 %47
}