; Function Attrs: mustprogress uwtable
define internal noundef i32 @_ZL15luaB_xpcallcontP9lua_Statei(ptr noundef %0, i32 noundef %1) #0 {
  %3 = icmp eq i32 %1, 0
  br i1 %3, label %4, label %6

4:                                                ; preds = %2
  tail call void @_Z17lua_rawcheckstackP9lua_Statei(ptr noundef %0, i32 noundef 1)
  tail call void @_Z15lua_pushbooleanP9lua_Statei(ptr noundef %0, i32 noundef 1)
  tail call void @_Z11lua_replaceP9lua_Statei(ptr noundef %0, i32 noundef 1)
  %5 = tail call noundef i32 @_Z10lua_gettopP9lua_State(ptr noundef %0)
  br label %19

6:                                                ; preds = %2
  tail call void @_Z17lua_rawcheckstackP9lua_Statei(ptr noundef %0, i32 noundef 3)
  tail call void @_Z15lua_pushbooleanP9lua_Statei(ptr noundef %0, i32 noundef 0)
  tail call void @_Z13lua_pushvalueP9lua_Statei(ptr noundef %0, i32 noundef 1)
  tail call void @_Z13lua_pushvalueP9lua_Statei(ptr noundef %0, i32 noundef -3)
  %7 = getelementptr inbounds i8, ptr %0, i64 8
  %8 = load ptr, ptr %7, align 8
  %9 = getelementptr inbounds i8, ptr %8, i64 -48
  %10 = getelementptr inbounds i8, ptr %8, i64 -32
  %11 = getelementptr inbounds i8, ptr %0, i64 48
  %12 = load ptr, ptr %11, align 8
  %13 = ptrtoint ptr %10 to i64
  %14 = ptrtoint ptr %12 to i64
  %15 = sub i64 %13, %14
  %16 = ptrtoint ptr %9 to i64
  %17 = sub i64 %16, %14
  %18 = tail call noundef i32 @_Z10luaD_pcallP9lua_StatePFvS0_PvES1_ll(ptr noundef %0, ptr noundef nonnull @_ZL14luaB_xpcallerrP9lua_StatePv, ptr noundef nonnull %10, i64 noundef %15, i64 noundef %17)
  br label %19

19:                                               ; preds = %6, %4
  %.0 = phi i32 [ %5, %4 ], [ 2, %6 ]
  ret i32 %.0
}